target datalayout = "e-m:e-p270:32:32-p271:32:32-p272:64:64-i64:64-i128:128-f80:128-n8:16:32:64-S128"
target triple = "x86_64-pc-linux-gnu"

%"struct.std::_Placeholder" = type { i8 }
%"struct.std::_Placeholder.1550" = type { i8 }
%"struct.std::_Placeholder.1551" = type { i8 }
%"struct.std::_Placeholder.1552" = type { i8 }
%"class.llvm::function_ref.1530" = type { ptr, i64 }
%"class.std::_Bind" = type { { i64, i64 }, %"class.std::tuple.1537" }
%"class.std::tuple.1537" = type { %"struct.std::_Tuple_impl.1538" }
%"struct.std::_Tuple_impl.1538" = type { %"struct.std::_Head_base.1547" }
%"struct.std::_Head_base.1547" = type { %"class.std::reference_wrapper" }
%"class.std::reference_wrapper" = type { ptr }

@_ZNSt12placeholders2_1E = external global %"struct.std::_Placeholder", align 1
@_ZNSt12placeholders2_2E = external global %"struct.std::_Placeholder.1550", align 1
@_ZNSt12placeholders2_3E = external global %"struct.std::_Placeholder.1551", align 1
@_ZNSt12placeholders2_4E = external global %"struct.std::_Placeholder.1552", align 1

; Function Attrs: mustprogress nounwind uwtable
define linkonce_odr hidden void @_ZNSt10_Head_baseILm4ESt12_PlaceholderILi4EELb1EEC2ERKS1_(ptr noundef nonnull align 1 dereferenceable(1) %0, ptr noundef nonnull align 1 dereferenceable(1) %1) unnamed_addr #0 comdat align 2 {
  %3 = alloca ptr, align 8
  %4 = alloca ptr, align 8
  store ptr %0, ptr %3, align 8
  store ptr %1, ptr %4, align 8
  ret void
}

; Function Attrs: mustprogress nounwind uwtable
define linkonce_odr hidden void @_ZNSt10_Head_baseILm3ESt12_PlaceholderILi3EELb1EEC2ERKS1_(ptr noundef nonnull align 1 dereferenceable(1) %0, ptr noundef nonnull align 1 dereferenceable(1) %1) unnamed_addr #0 comdat align 2 {
  %3 = alloca ptr, align 8
  %4 = alloca ptr, align 8
  store ptr %0, ptr %3, align 8
  store ptr %1, ptr %4, align 8
  ret void
}

; Function Attrs: mustprogress nounwind uwtable
define linkonce_odr hidden void @_ZNSt11_Tuple_implILm4EJSt12_PlaceholderILi4EEEEC2ERKS1_(ptr noundef nonnull align 1 dereferenceable(1) %0, ptr noundef nonnull align 1 dereferenceable(1) %1) unnamed_addr #0 comdat align 2 {
  %3 = alloca ptr, align 8
  %4 = alloca ptr, align 8
  store ptr %0, ptr %3, align 8
  store ptr %1, ptr %4, align 8
  %5 = load ptr, ptr %3, align 8
  %6 = load ptr, ptr %4, align 8
  call void @_ZNSt10_Head_baseILm4ESt12_PlaceholderILi4EELb1EEC2ERKS1_(ptr noundef nonnull align 1 dereferenceable(1) %5, ptr noundef nonnull align 1 dereferenceable(1) %6)
  ret void
}

; Function Attrs: mustprogress nounwind uwtable
define linkonce_odr hidden void @_ZNSt10_Head_baseILm2ESt12_PlaceholderILi2EELb1EEC2ERKS1_(ptr noundef nonnull align 1 dereferenceable(1) %0, ptr noundef nonnull align 1 dereferenceable(1) %1) unnamed_addr #0 comdat align 2 {
  %3 = alloca ptr, align 8
  %4 = alloca ptr, align 8
  store ptr %0, ptr %3, align 8
  store ptr %1, ptr %4, align 8
  ret void
}

; Function Attrs: mustprogress nounwind uwtable
define linkonce_odr hidden void @_ZNSt11_Tuple_implILm3EJSt12_PlaceholderILi3EES0_ILi4EEEEC2ERKS1_RKS2_(ptr noundef nonnull align 1 dereferenceable(1) %0, ptr noundef nonnull align 1 dereferenceable(1) %1, ptr noundef nonnull align 1 dereferenceable(1) %2) unnamed_addr #0 comdat align 2 {
  %4 = alloca ptr, align 8
  %5 = alloca ptr, align 8
  %6 = alloca ptr, align 8
  store ptr %0, ptr %4, align 8
  store ptr %1, ptr %5, align 8
  store ptr %2, ptr %6, align 8
  %7 = load ptr, ptr %4, align 8
  %8 = load ptr, ptr %6, align 8
  call void @_ZNSt11_Tuple_implILm4EJSt12_PlaceholderILi4EEEEC2ERKS1_(ptr noundef nonnull align 1 dereferenceable(1) %7, ptr noundef nonnull align 1 dereferenceable(1) %8)
  %9 = load ptr, ptr %5, align 8
  call void @_ZNSt10_Head_baseILm3ESt12_PlaceholderILi3EELb1EEC2ERKS1_(ptr noundef nonnull align 1 dereferenceable(1) %7, ptr noundef nonnull align 1 dereferenceable(1) %9)
  ret void
}

; Function Attrs: mustprogress nounwind uwtable
define linkonce_odr hidden void @_ZNSt10_Head_baseILm1ESt12_PlaceholderILi1EELb1EEC2ERKS1_(ptr noundef nonnull align 1 dereferenceable(1) %0, ptr noundef nonnull align 1 dereferenceable(1) %1) unnamed_addr #0 comdat align 2 {
  %3 = alloca ptr, align 8
  %4 = alloca ptr, align 8
  store ptr %0, ptr %3, align 8
  store ptr %1, ptr %4, align 8
  ret void
}

; Function Attrs: mustprogress nounwind uwtable
define linkonce_odr hidden void @_ZNSt11_Tuple_implILm2EJSt12_PlaceholderILi2EES0_ILi3EES0_ILi4EEEEC2ERKS1_RKS2_RKS3_(ptr noundef nonnull align 1 dereferenceable(1) %0, ptr noundef nonnull align 1 dereferenceable(1) %1, ptr noundef nonnull align 1 dereferenceable(1) %2, ptr noundef nonnull align 1 dereferenceable(1) %3) unnamed_addr #0 comdat align 2 {
  %5 = alloca ptr, align 8
  %6 = alloca ptr, align 8
  %7 = alloca ptr, align 8
  %8 = alloca ptr, align 8
  store ptr %0, ptr %5, align 8
  store ptr %1, ptr %6, align 8
  store ptr %2, ptr %7, align 8
  store ptr %3, ptr %8, align 8
  %9 = load ptr, ptr %5, align 8
  %10 = load ptr, ptr %7, align 8
  %11 = load ptr, ptr %8, align 8
  call void @_ZNSt11_Tuple_implILm3EJSt12_PlaceholderILi3EES0_ILi4EEEEC2ERKS1_RKS2_(ptr noundef nonnull align 1 dereferenceable(1) %9, ptr noundef nonnull align 1 dereferenceable(1) %10, ptr noundef nonnull align 1 dereferenceable(1) %11)
  %12 = load ptr, ptr %6, align 8
  call void @_ZNSt10_Head_baseILm2ESt12_PlaceholderILi2EELb1EEC2ERKS1_(ptr noundef nonnull align 1 dereferenceable(1) %9, ptr noundef nonnull align 1 dereferenceable(1) %12)
  ret void
}

; Function Attrs: mustprogress nounwind uwtable
define linkonce_odr hidden void @_ZNSt10_Head_baseILm0ESt17reference_wrapperIN5clang4SemaEELb0EEC2IS3_EEOT_(ptr noundef nonnull align 8 dereferenceable(8) %0, ptr noundef nonnull align 8 dereferenceable(8) %1) unnamed_addr #0 comdat align 2 {
  %3 = alloca ptr, align 8
  %4 = alloca ptr, align 8
  store ptr %0, ptr %3, align 8
  store ptr %1, ptr %4, align 8
  %5 = load ptr, ptr %3, align 8
  %6 = getelementptr inbounds nuw %"struct.std::_Head_base.1547", ptr %5, i32 0, i32 0
  %7 = load ptr, ptr %4, align 8
  call void @llvm.memcpy.p0.p0.i64(ptr align 8 %6, ptr align 8 %7, i64 8, i1 false)
  ret void
}

; Function Attrs: mustprogress nounwind uwtable
define linkonce_odr hidden void @_ZNSt11_Tuple_implILm1EJSt12_PlaceholderILi1EES0_ILi2EES0_ILi3EES0_ILi4EEEEC2ERKS1_RKS2_RKS3_RKS4_(ptr noundef nonnull align 1 dereferenceable(1) %0, ptr noundef nonnull align 1 dereferenceable(1) %1, ptr noundef nonnull align 1 dereferenceable(1) %2, ptr noundef nonnull align 1 dereferenceable(1) %3, ptr noundef nonnull align 1 dereferenceable(1) %4) unnamed_addr #0 comdat align 2 {
  %6 = alloca ptr, align 8
  %7 = alloca ptr, align 8
  %8 = alloca ptr, align 8
  %9 = alloca ptr, align 8
  %10 = alloca ptr, align 8
  store ptr %0, ptr %6, align 8
  store ptr %1, ptr %7, align 8
  store ptr %2, ptr %8, align 8
  store ptr %3, ptr %9, align 8
  store ptr %4, ptr %10, align 8
  %11 = load ptr, ptr %6, align 8
  %12 = load ptr, ptr %8, align 8
  %13 = load ptr, ptr %9, align 8
  %14 = load ptr, ptr %10, align 8
  call void @_ZNSt11_Tuple_implILm2EJSt12_PlaceholderILi2EES0_ILi3EES0_ILi4EEEEC2ERKS1_RKS2_RKS3_(ptr noundef nonnull align 1 dereferenceable(1) %11, ptr noundef nonnull align 1 dereferenceable(1) %12, ptr noundef nonnull align 1 dereferenceable(1) %13, ptr noundef nonnull align 1 dereferenceable(1) %14)
  %15 = load ptr, ptr %7, align 8
  call void @_ZNSt10_Head_baseILm1ESt12_PlaceholderILi1EELb1EEC2ERKS1_(ptr noundef nonnull align 1 dereferenceable(1) %11, ptr noundef nonnull align 1 dereferenceable(1) %15)
  ret void
}

; Function Attrs: mustprogress nounwind uwtable
define linkonce_odr hidden void @_ZNSt11_Tuple_implILm0EJSt17reference_wrapperIN5clang4SemaEESt12_PlaceholderILi1EES4_ILi2EES4_ILi3EES4_ILi4EEEEC2IS3_JRKS5_RKS6_RKS7_RKS8_EvEEOT_DpOT0_(ptr noundef nonnull align 8 dereferenceable(8) %0, ptr noundef nonnull align 8 dereferenceable(8) %1, ptr noundef nonnull align 1 dereferenceable(1) %2, ptr noundef nonnull align 1 dereferenceable(1) %3, ptr noundef nonnull align 1 dereferenceable(1) %4, ptr noundef nonnull align 1 dereferenceable(1) %5) unnamed_addr #0 comdat align 2 {
  %7 = alloca ptr, align 8
  %8 = alloca ptr, align 8
  %9 = alloca ptr, align 8
  %10 = alloca ptr, align 8
  %11 = alloca ptr, align 8
  %12 = alloca ptr, align 8
  store ptr %0, ptr %7, align 8
  store ptr %1, ptr %8, align 8
  store ptr %2, ptr %9, align 8
  store ptr %3, ptr %10, align 8
  store ptr %4, ptr %11, align 8
  store ptr %5, ptr %12, align 8
  %13 = load ptr, ptr %7, align 8
  %14 = load ptr, ptr %9, align 8
  %15 = load ptr, ptr %10, align 8
  %16 = load ptr, ptr %11, align 8
  %17 = load ptr, ptr %12, align 8
  call void @_ZNSt11_Tuple_implILm1EJSt12_PlaceholderILi1EES0_ILi2EES0_ILi3EES0_ILi4EEEEC2ERKS1_RKS2_RKS3_RKS4_(ptr noundef nonnull align 1 dereferenceable(1) %13, ptr noundef nonnull align 1 dereferenceable(1) %14, ptr noundef nonnull align 1 dereferenceable(1) %15, ptr noundef nonnull align 1 dereferenceable(1) %16, ptr noundef nonnull align 1 dereferenceable(1) %17)
  %18 = load ptr, ptr %8, align 8
  call void @_ZNSt10_Head_baseILm0ESt17reference_wrapperIN5clang4SemaEELb0EEC2IS3_EEOT_(ptr noundef nonnull align 8 dereferenceable(8) %13, ptr noundef nonnull align 8 dereferenceable(8) %18)
  ret void
}

; Function Attrs: mustprogress nounwind uwtable
define linkonce_odr hidden void @_ZNSt5tupleIJSt17reference_wrapperIN5clang4SemaEESt12_PlaceholderILi1EES4_ILi2EES4_ILi3EES4_ILi4EEEEC2IJS3_RKS5_RKS6_RKS7_RKS8_ELb1ETnNSt9enable_ifIXclsr4_TCCIXT0_EEE29__is_implicitly_constructibleIDpT_EEEbE4typeELb1EEEDpOSK_(ptr noundef nonnull align 8 dereferenceable(8) %0, ptr noundef nonnull align 8 dereferenceable(8) %1, ptr noundef nonnull align 1 dereferenceable(1) %2, ptr noundef nonnull align 1 dereferenceable(1) %3, ptr noundef nonnull align 1 dereferenceable(1) %4, ptr noundef nonnull align 1 dereferenceable(1) %5) unnamed_addr #0 comdat align 2 {
  %7 = alloca ptr, align 8
  %8 = alloca ptr, align 8
  %9 = alloca ptr, align 8
  %10 = alloca ptr, align 8
  %11 = alloca ptr, align 8
  %12 = alloca ptr, align 8
  store ptr %0, ptr %7, align 8
  store ptr %1, ptr %8, align 8
  store ptr %2, ptr %9, align 8
  store ptr %3, ptr %10, align 8
  store ptr %4, ptr %11, align 8
  store ptr %5, ptr %12, align 8
  %13 = load ptr, ptr %7, align 8
  %14 = load ptr, ptr %8, align 8
  %15 = load ptr, ptr %9, align 8
  %16 = load ptr, ptr %10, align 8
  %17 = load ptr, ptr %11, align 8
  %18 = load ptr, ptr %12, align 8
  call void @_ZNSt11_Tuple_implILm0EJSt17reference_wrapperIN5clang4SemaEESt12_PlaceholderILi1EES4_ILi2EES4_ILi3EES4_ILi4EEEEC2IS3_JRKS5_RKS6_RKS7_RKS8_EvEEOT_DpOT0_(ptr noundef nonnull align 8 dereferenceable(8) %13, ptr noundef nonnull align 8 dereferenceable(8) %14, ptr noundef nonnull align 1 dereferenceable(1) %15, ptr noundef nonnull align 1 dereferenceable(1) %16, ptr noundef nonnull align 1 dereferenceable(1) %17, ptr noundef nonnull align 1 dereferenceable(1) %18)
  ret void
}

; Function Attrs: mustprogress nounwind uwtable
define linkonce_odr hidden noundef ptr @_ZNSt17reference_wrapperIN5clang4SemaEE6_S_funERS1_(ptr noundef nonnull align 8 dereferenceable(17560) %0) #0 comdat align 2 {
  %2 = alloca ptr, align 8
  store ptr %0, ptr %2, align 8
  %3 = load ptr, ptr %2, align 8
  ret ptr %3
}

; Function Attrs: mustprogress nounwind uwtable
define linkonce_odr hidden void @_ZNSt5_BindIFMN5clang4SemaEFvPNS0_4ExprEPNS0_10RecordDeclEPNS0_9ValueDeclENS0_9CharUnitsEESt17reference_wrapperIS1_ESt12_PlaceholderILi1EESD_ILi2EESD_ILi3EESD_ILi4EEEEC2IJSC_RKSE_RKSF_RKSG_RKSH_EEEOSA_DpOT_(ptr noundef nonnull align 8 dereferenceable(24) %0, ptr noundef nonnull align 8 dereferenceable(16) %1, ptr noundef nonnull align 8 dereferenceable(8) %2, ptr noundef nonnull align 1 dereferenceable(1) %3, ptr noundef nonnull align 1 dereferenceable(1) %4, ptr noundef nonnull align 1 dereferenceable(1) %5, ptr noundef nonnull align 1 dereferenceable(1) %6) unnamed_addr #0 comdat align 2 {
  %8 = alloca ptr, align 8
  %9 = alloca ptr, align 8
  %10 = alloca ptr, align 8
  %11 = alloca ptr, align 8
  %12 = alloca ptr, align 8
  %13 = alloca ptr, align 8
  %14 = alloca ptr, align 8
  store ptr %0, ptr %8, align 8
  store ptr %1, ptr %9, align 8
  store ptr %2, ptr %10, align 8
  store ptr %3, ptr %11, align 8
  store ptr %4, ptr %12, align 8
  store ptr %5, ptr %13, align 8
  store ptr %6, ptr %14, align 8
  %15 = load ptr, ptr %8, align 8
  %16 = getelementptr inbounds nuw %"class.std::_Bind", ptr %15, i32 0, i32 0
  %17 = load ptr, ptr %9, align 8
  %18 = load { i64, i64 }, ptr %17, align 8
  store { i64, i64 } %18, ptr %16, align 8
  %19 = getelementptr inbounds nuw %"class.std::_Bind", ptr %15, i32 0, i32 1
  %20 = load ptr, ptr %10, align 8
  %21 = load ptr, ptr %11, align 8
  %22 = load ptr, ptr %12, align 8
  %23 = load ptr, ptr %13, align 8
  %24 = load ptr, ptr %14, align 8
  call void @_ZNSt5tupleIJSt17reference_wrapperIN5clang4SemaEESt12_PlaceholderILi1EES4_ILi2EES4_ILi3EES4_ILi4EEEEC2IJS3_RKS5_RKS6_RKS7_RKS8_ELb1ETnNSt9enable_ifIXclsr4_TCCIXT0_EEE29__is_implicitly_constructibleIDpT_EEEbE4typeELb1EEEDpOSK_(ptr noundef nonnull align 8 dereferenceable(8) %19, ptr noundef nonnull align 8 dereferenceable(8) %20, ptr noundef nonnull align 1 dereferenceable(1) %21, ptr noundef nonnull align 1 dereferenceable(1) %22, ptr noundef nonnull align 1 dereferenceable(1) %23, ptr noundef nonnull align 1 dereferenceable(1) %24) #15
  ret void
}

; Function Attrs: mustprogress nounwind uwtable
define linkonce_odr hidden void @_ZNSt17reference_wrapperIN5clang4SemaEEC2IRS1_vPS1_EEOT_(ptr noundef nonnull align 8 dereferenceable(8) %0, ptr noundef nonnull align 8 dereferenceable(17560) %1) unnamed_addr #0 comdat align 2 {
  %3 = alloca ptr, align 8
  %4 = alloca ptr, align 8
  store ptr %0, ptr %3, align 8
  store ptr %1, ptr %4, align 8
  %5 = load ptr, ptr %3, align 8
  %6 = getelementptr inbounds nuw %"class.std::reference_wrapper", ptr %5, i32 0, i32 0
  %7 = load ptr, ptr %4, align 8
  %8 = call noundef ptr @_ZNSt17reference_wrapperIN5clang4SemaEE6_S_funERS1_(ptr noundef nonnull align 8 dereferenceable(17560) %7) #15
  store ptr %8, ptr %6, align 8
  ret void
}

; Function Attrs: mustprogress nounwind uwtable
define linkonce_odr hidden void @_ZN4llvm12function_refIFvPN5clang4ExprEPNS1_10RecordDeclEPNS1_9FieldDeclENS1_9CharUnitsEEEC2ISt5_BindIFMNS1_4SemaEFvS3_S5_PNS1_9ValueDeclES8_ESt17reference_wrapperISD_ESt12_PlaceholderILi1EESK_ILi2EESK_ILi3EESK_ILi4EEEEEEOT_PNSt9enable_ifIXntsr3std7is_sameINS_12remove_cvrefISR_E4typeESA_EE5valueEvE4typeEPNST_IXooL_ZNSt17integral_constantIbLb1EE5valueEEsr3std14is_convertibleIDTclclsr3stdE7declvalISR_EEclL_ZSt7declvalIS3_EDTcl9__declvalISR_ELi0EEEvEEclL_ZS12_IS5_ES13_vEEclL_ZS12_IS7_ES13_vEEclL_ZS12_IS8_ES13_vEEEEvEE5valueEvE4typeE(ptr noundef nonnull align 8 dereferenceable(16) %0, ptr noundef nonnull align 8 dereferenceable(24) %1, ptr noundef %2, ptr noundef %3) unnamed_addr #0 comdat align 2 {
  %5 = alloca ptr, align 8
  %6 = alloca ptr, align 8
  %7 = alloca ptr, align 8
  %8 = alloca ptr, align 8
  store ptr %0, ptr %5, align 8
  store ptr %1, ptr %6, align 8
  store ptr %2, ptr %7, align 8
  store ptr %3, ptr %8, align 8
  %9 = load ptr, ptr %5, align 8
  %10 = getelementptr inbounds nuw %"class.llvm::function_ref.1530", ptr %9, i32 0, i32 0
  store ptr @_ZN4llvm12function_refIFvPN5clang4ExprEPNS1_10RecordDeclEPNS1_9FieldDeclENS1_9CharUnitsEEE11callback_fnISt5_BindIFMNS1_4SemaEFvS3_S5_PNS1_9ValueDeclES8_ESt17reference_wrapperISD_ESt12_PlaceholderILi1EESK_ILi2EESK_ILi3EESK_ILi4EEEEEEvlS3_S5_S7_S8_, ptr %10, align 8
  %11 = getelementptr inbounds nuw %"class.llvm::function_ref.1530", ptr %9, i32 0, i32 1
  %12 = load ptr, ptr %6, align 8
  %13 = ptrtoint ptr %12 to i64
  store i64 %13, ptr %11, align 8
  ret void
}

; Function Attrs: mustprogress nounwind uwtable
define linkonce_odr void @_ZSt4bindIMN5clang4SemaEFvPNS0_4ExprEPNS0_10RecordDeclEPNS0_9ValueDeclENS0_9CharUnitsEEJSt17reference_wrapperIS1_ERKSt12_PlaceholderILi1EERKSD_ILi2EERKSD_ILi3EERKSD_ILi4EEEENSt12_Bind_helperIXsr15__is_socketlikeIT_EE5valueESR_JDpT0_EE4typeEOSR_DpOSS_(ptr dead_on_unwind noalias writable sret(%"class.std::_Bind") align 8 %0, ptr noundef nonnull align 8 dereferenceable(16) %1, ptr noundef nonnull align 8 dereferenceable(8) %2, ptr noundef nonnull align 1 dereferenceable(1) %3, ptr noundef nonnull align 1 dereferenceable(1) %4, ptr noundef nonnull align 1 dereferenceable(1) %5, ptr noundef nonnull align 1 dereferenceable(1) %6) #0 comdat {
  %8 = alloca ptr, align 8
  %9 = alloca ptr, align 8
  %10 = alloca ptr, align 8
  %11 = alloca ptr, align 8
  %12 = alloca ptr, align 8
  %13 = alloca ptr, align 8
  %14 = alloca ptr, align 8
  store ptr %0, ptr %8, align 8
  store ptr %1, ptr %9, align 8
  store ptr %2, ptr %10, align 8
  store ptr %3, ptr %11, align 8
  store ptr %4, ptr %12, align 8
  store ptr %5, ptr %13, align 8
  store ptr %6, ptr %14, align 8
  %15 = load ptr, ptr %9, align 8
  %16 = load ptr, ptr %10, align 8
  %17 = load ptr, ptr %11, align 8
  %18 = load ptr, ptr %12, align 8
  %19 = load ptr, ptr %13, align 8
  %20 = load ptr, ptr %14, align 8
  call void @_ZNSt5_BindIFMN5clang4SemaEFvPNS0_4ExprEPNS0_10RecordDeclEPNS0_9ValueDeclENS0_9CharUnitsEESt17reference_wrapperIS1_ESt12_PlaceholderILi1EESD_ILi2EESD_ILi3EESD_ILi4EEEEC2IJSC_RKSE_RKSF_RKSG_RKSH_EEEOSA_DpOT_(ptr noundef nonnull align 8 dereferenceable(24) %0, ptr noundef nonnull align 8 dereferenceable(16) %15, ptr noundef nonnull align 8 dereferenceable(8) %16, ptr noundef nonnull align 1 dereferenceable(1) %17, ptr noundef nonnull align 1 dereferenceable(1) %18, ptr noundef nonnull align 1 dereferenceable(1) %19, ptr noundef nonnull align 1 dereferenceable(1) %20)
  ret void
}

; Function Attrs: mustprogress nounwind uwtable
define linkonce_odr ptr @_ZSt3refIN5clang4SemaEESt17reference_wrapperIT_ERS3_(ptr noundef nonnull align 8 dereferenceable(17560) %0) #0 comdat {
  %2 = alloca %"class.std::reference_wrapper", align 8
  %3 = alloca ptr, align 8
  store ptr %0, ptr %3, align 8
  %4 = load ptr, ptr %3, align 8
  call void @_ZNSt17reference_wrapperIN5clang4SemaEEC2IRS1_vPS1_EEOT_(ptr noundef nonnull align 8 dereferenceable(8) %2, ptr noundef nonnull align 8 dereferenceable(17560) %4) #15
  %5 = getelementptr inbounds nuw %"class.std::reference_wrapper", ptr %2, i32 0, i32 0
  %6 = load ptr, ptr %5, align 8
  ret ptr %6
}

; Function Attrs: mustprogress nounwind uwtable
define dso_local void @_ZN5clang4Sema26CheckAddressOfPackedMemberEPNS_4ExprE(ptr noundef nonnull align 8 dereferenceable(17560) %0, ptr noundef %1) #0 align 2 {
  %3 = alloca ptr, align 8
  %4 = alloca ptr, align 8
  %5 = alloca %"class.llvm::function_ref.1530", align 8
  %6 = alloca %"class.std::_Bind", align 8
  %7 = alloca { i64, i64 }, align 8
  %8 = alloca %"class.std::reference_wrapper", align 8
  store ptr %0, ptr %3, align 8
  store ptr %1, ptr %4, align 8
  %9 = load ptr, ptr %3, align 8
  %10 = load ptr, ptr %4, align 8
  store { i64, i64 } { i64 ptrtoint (ptr @_ZN5clang4Sema29AddPotentialMisalignedMembersEPNS_4ExprEPNS_10RecordDeclEPNS_9ValueDeclENS_9CharUnitsE to i64), i64 0 }, ptr %7, align 8
  %11 = call ptr @_ZSt3refIN5clang4SemaEESt17reference_wrapperIT_ERS3_(ptr noundef nonnull align 8 dereferenceable(17560) %9) #15
  %12 = getelementptr inbounds nuw %"class.std::reference_wrapper", ptr %8, i32 0, i32 0
  store ptr %11, ptr %12, align 8
  call void @_ZSt4bindIMN5clang4SemaEFvPNS0_4ExprEPNS0_10RecordDeclEPNS0_9ValueDeclENS0_9CharUnitsEEJSt17reference_wrapperIS1_ERKSt12_PlaceholderILi1EERKSD_ILi2EERKSD_ILi3EERKSD_ILi4EEEENSt12_Bind_helperIXsr15__is_socketlikeIT_EE5valueESR_JDpT0_EE4typeEOSR_DpOSS_(ptr dead_on_unwind writable sret(%"class.std::_Bind") align 8 %6, ptr noundef nonnull align 8 dereferenceable(16) %7, ptr noundef nonnull align 8 dereferenceable(8) %8, ptr noundef nonnull align 1 dereferenceable(1) @_ZNSt12placeholders2_1E, ptr noundef nonnull align 1 dereferenceable(1) @_ZNSt12placeholders2_2E, ptr noundef nonnull align 1 dereferenceable(1) @_ZNSt12placeholders2_3E, ptr noundef nonnull align 1 dereferenceable(1) @_ZNSt12placeholders2_4E)
  call void @_ZN4llvm12function_refIFvPN5clang4ExprEPNS1_10RecordDeclEPNS1_9FieldDeclENS1_9CharUnitsEEEC2ISt5_BindIFMNS1_4SemaEFvS3_S5_PNS1_9ValueDeclES8_ESt17reference_wrapperISD_ESt12_PlaceholderILi1EESK_ILi2EESK_ILi3EESK_ILi4EEEEEEOT_PNSt9enable_ifIXntsr3std7is_sameINS_12remove_cvrefISR_E4typeESA_EE5valueEvE4typeEPNST_IXooL_ZNSt17integral_constantIbLb1EE5valueEEsr3std14is_convertibleIDTclclsr3stdE7declvalISR_EEclL_ZSt7declvalIS3_EDTcl9__declvalISR_ELi0EEEvEEclL_ZS12_IS5_ES13_vEEclL_ZS12_IS7_ES13_vEEclL_ZS12_IS8_ES13_vEEEEvEE5valueEvE4typeE(ptr noundef nonnull align 8 dereferenceable(16) %5, ptr noundef nonnull align 8 dereferenceable(24) %6, ptr noundef null, ptr noundef null)
  %13 = getelementptr inbounds nuw { ptr, i64 }, ptr %5, i32 0, i32 0
  %14 = load ptr, ptr %13, align 8
  %15 = getelementptr inbounds nuw { ptr, i64 }, ptr %5, i32 0, i32 1
  %16 = load i64, ptr %15, align 8
  call void @_ZN5clang4Sema34RefersToMemberWithReducedAlignmentEPNS_4ExprEN4llvm12function_refIFvS2_PNS_10RecordDeclEPNS_9FieldDeclENS_9CharUnitsEEEE(ptr noundef nonnull align 8 dereferenceable(17560) %9, ptr noundef %10, ptr %14, i64 %16)
  ret void
}