; Function Attrs: mustprogress nounwind uwtable
define dso_local void @_ZN5clang4Sema26CheckAddressOfPackedMemberEPNS_4ExprE(ptr noundef nonnull align 8 dereferenceable(17560) %0, ptr noundef %1) local_unnamed_addr #0 align 2 {
  %3 = alloca %"class.std::_Bind", align 8
  store i64 ptrtoint (ptr @_ZN5clang4Sema29AddPotentialMisalignedMembersEPNS_4ExprEPNS_10RecordDeclEPNS_9ValueDeclENS_9CharUnitsE to i64), ptr %3, align 8, !alias.scope !456
  %.repack9.i.i = getelementptr inbounds i8, ptr %3, i64 8
  store i64 0, ptr %.repack9.i.i, align 8, !alias.scope !456
  %4 = getelementptr inbounds nuw i8, ptr %3, i64 16
  %5 = ptrtoint ptr %0 to i64
  store i64 %5, ptr %4, align 8, !alias.scope !456
  %6 = ptrtoint ptr %3 to i64
  call void @_ZN5clang4Sema34RefersToMemberWithReducedAlignmentEPNS_4ExprEN4llvm12function_refIFvS2_PNS_10RecordDeclEPNS_9FieldDeclENS_9CharUnitsEEEE(ptr noundef nonnull align 8 dereferenceable(17560) %0, ptr noundef %1, ptr nonnull @_ZN4llvm12function_refIFvPN5clang4ExprEPNS1_10RecordDeclEPNS1_9FieldDeclENS1_9CharUnitsEEE11callback_fnISt5_BindIFMNS1_4SemaEFvS3_S5_PNS1_9ValueDeclES8_ESt17reference_wrapperISD_ESt12_PlaceholderILi1EESK_ILi2EESK_ILi3EESK_ILi4EEEEEEvlS3_S5_S7_S8_, i64 %6)
  ret void
}